target datalayout = "e-m:e-p270:32:32-p271:32:32-p272:64:64-i64:64-i128:128-f80:128-n8:16:32:64-S128"
target triple = "x86_64-pc-linux-gnu"

%struct.quic_sstream_st = type { %struct.ring_buf, %struct.ossl_list_st_uint_set, %struct.ossl_list_st_uint_set, i8 }
%struct.ring_buf = type { ptr, i64, i64, i64 }
%struct.ossl_list_st_uint_set = type { ptr, ptr, i64 }
%struct.ossl_quic_frame_stream_st = type { i64, i64, i64, ptr, i8 }
%struct.uint_set_item_st = type { %struct.anon, %struct.uint_range_st }
%struct.anon = type { ptr, ptr }
%struct.uint_range_st = type { i64, i64 }
%struct.ossl_qtx_iovec_st = type { ptr, i64 }

; Function Attrs: inlinehint nounwind uwtable
define internal i32 @ring_buf_get_buf_at(ptr noundef %0, i64 noundef %1, ptr noundef %2, ptr noundef %3) #3 {
  %5 = alloca i32, align 4
  %6 = alloca ptr, align 8
  %7 = alloca i64, align 8
  %8 = alloca ptr, align 8
  %9 = alloca ptr, align 8
  %10 = alloca ptr, align 8
  %11 = alloca i64, align 8
  %12 = alloca i64, align 8
  %13 = alloca i32, align 4
  store ptr %0, ptr %6, align 8, !tbaa !10
  store i64 %1, ptr %7, align 8, !tbaa !3
  store ptr %2, ptr %8, align 8, !tbaa !49
  store ptr %3, ptr %9, align 8, !tbaa !25
  call void @llvm.lifetime.start.p0(i64 8, ptr %10) #6
  %14 = load ptr, ptr %6, align 8, !tbaa !10
  %15 = getelementptr inbounds nuw %struct.ring_buf, ptr %14, i32 0, i32 0
  %16 = load ptr, ptr %15, align 8, !tbaa !12
  store ptr %16, ptr %10, align 8, !tbaa !19
  call void @llvm.lifetime.start.p0(i64 8, ptr %11) #6
  call void @llvm.lifetime.start.p0(i64 8, ptr %12) #6
  %17 = load i64, ptr %7, align 8, !tbaa !3
  %18 = load ptr, ptr %6, align 8, !tbaa !10
  %19 = getelementptr inbounds nuw %struct.ring_buf, ptr %18, i32 0, i32 2
  %20 = load i64, ptr %19, align 8, !tbaa !16
  %21 = icmp ugt i64 %17, %20
  br i1 %21, label %28, label %22

22:                                               ; preds = %4
  %23 = load i64, ptr %7, align 8, !tbaa !3
  %24 = load ptr, ptr %6, align 8, !tbaa !10
  %25 = getelementptr inbounds nuw %struct.ring_buf, ptr %24, i32 0, i32 3
  %26 = load i64, ptr %25, align 8, !tbaa !15
  %27 = icmp ult i64 %23, %26
  br i1 %27, label %28, label %29

28:                                               ; preds = %22, %4
  store i32 0, ptr %5, align 4
  store i32 1, ptr %13, align 4
  br label %68

29:                                               ; preds = %22
  %30 = load ptr, ptr %6, align 8, !tbaa !10
  %31 = getelementptr inbounds nuw %struct.ring_buf, ptr %30, i32 0, i32 1
  %32 = load i64, ptr %31, align 8, !tbaa !14
  %33 = icmp eq i64 %32, 0
  br i1 %33, label %34, label %37

34:                                               ; preds = %29
  %35 = load ptr, ptr %8, align 8, !tbaa !49
  store ptr null, ptr %35, align 8, !tbaa !19
  %36 = load ptr, ptr %9, align 8, !tbaa !25
  store i64 0, ptr %36, align 8, !tbaa !3
  store i32 1, ptr %5, align 4
  store i32 1, ptr %13, align 4
  br label %68

37:                                               ; preds = %29
  %38 = load i64, ptr %7, align 8, !tbaa !3
  %39 = load ptr, ptr %6, align 8, !tbaa !10
  %40 = getelementptr inbounds nuw %struct.ring_buf, ptr %39, i32 0, i32 1
  %41 = load i64, ptr %40, align 8, !tbaa !14
  %42 = urem i64 %38, %41
  store i64 %42, ptr %11, align 8, !tbaa !3
  %43 = load ptr, ptr %6, align 8, !tbaa !10
  %44 = getelementptr inbounds nuw %struct.ring_buf, ptr %43, i32 0, i32 2
  %45 = load i64, ptr %44, align 8, !tbaa !16
  %46 = load i64, ptr %7, align 8, !tbaa !3
  %47 = sub i64 %45, %46
  store i64 %47, ptr %12, align 8, !tbaa !3
  %48 = load i64, ptr %12, align 8, !tbaa !3
  %49 = load ptr, ptr %6, align 8, !tbaa !10
  %50 = getelementptr inbounds nuw %struct.ring_buf, ptr %49, i32 0, i32 1
  %51 = load i64, ptr %50, align 8, !tbaa !14
  %52 = load i64, ptr %11, align 8, !tbaa !3
  %53 = sub i64 %51, %52
  %54 = icmp ugt i64 %48, %53
  br i1 %54, label %55, label %61

55:                                               ; preds = %37
  %56 = load ptr, ptr %6, align 8, !tbaa !10
  %57 = getelementptr inbounds nuw %struct.ring_buf, ptr %56, i32 0, i32 1
  %58 = load i64, ptr %57, align 8, !tbaa !14
  %59 = load i64, ptr %11, align 8, !tbaa !3
  %60 = sub i64 %58, %59
  store i64 %60, ptr %12, align 8, !tbaa !3
  br label %61

61:                                               ; preds = %55, %37
  %62 = load ptr, ptr %10, align 8, !tbaa !19
  %63 = load i64, ptr %11, align 8, !tbaa !3
  %64 = getelementptr inbounds nuw i8, ptr %62, i64 %63
  %65 = load ptr, ptr %8, align 8, !tbaa !49
  store ptr %64, ptr %65, align 8, !tbaa !19
  %66 = load i64, ptr %12, align 8, !tbaa !3
  %67 = load ptr, ptr %9, align 8, !tbaa !25
  store i64 %66, ptr %67, align 8, !tbaa !3
  store i32 1, ptr %5, align 4
  store i32 1, ptr %13, align 4
  br label %68

68:                                               ; preds = %61, %34, %28
  call void @llvm.lifetime.end.p0(i64 8, ptr %12) #6
  call void @llvm.lifetime.end.p0(i64 8, ptr %11) #6
  call void @llvm.lifetime.end.p0(i64 8, ptr %10) #6
  %69 = load i32, ptr %5, align 4
  ret i32 %69
}

; Function Attrs: inlinehint nounwind uwtable
define internal ptr @ossl_list_uint_set_next(ptr noundef %0) #3 {
  %2 = alloca ptr, align 8
  store ptr %0, ptr %2, align 8, !tbaa !27
  %3 = load ptr, ptr %2, align 8, !tbaa !27
  %4 = getelementptr inbounds nuw %struct.uint_set_item_st, ptr %3, i32 0, i32 0
  %5 = getelementptr inbounds nuw %struct.anon, ptr %4, i32 0, i32 0
  %6 = load ptr, ptr %5, align 8, !tbaa !48
  ret ptr %6
}

; Function Attrs: inlinehint nounwind uwtable
define internal ptr @ossl_list_uint_set_head(ptr noundef %0) #3 {
  %2 = alloca ptr, align 8
  store ptr %0, ptr %2, align 8, !tbaa !45
  %3 = load ptr, ptr %2, align 8, !tbaa !45
  %4 = getelementptr inbounds nuw %struct.ossl_list_st_uint_set, ptr %3, i32 0, i32 0
  %5 = load ptr, ptr %4, align 8, !tbaa !47
  ret ptr %5
}

; Function Attrs: nounwind uwtable
define i32 @ossl_quic_sstream_get_stream_frame(ptr noundef %0, i64 noundef %1, ptr noundef %2, ptr noundef %3, ptr noundef %4) #0 {
  %6 = alloca i32, align 4
  %7 = alloca ptr, align 8
  %8 = alloca i64, align 8
  %9 = alloca ptr, align 8
  %10 = alloca ptr, align 8
  %11 = alloca ptr, align 8
  %12 = alloca i64, align 8
  %13 = alloca i64, align 8
  %14 = alloca i64, align 8
  %15 = alloca i64, align 8
  %16 = alloca i64, align 8
  %17 = alloca ptr, align 8
  %18 = alloca ptr, align 8
  %19 = alloca i32, align 4
  store ptr %0, ptr %7, align 8, !tbaa !7
  store i64 %1, ptr %8, align 8, !tbaa !3
  store ptr %2, ptr %9, align 8, !tbaa !21
  store ptr %3, ptr %10, align 8, !tbaa !23
  store ptr %4, ptr %11, align 8, !tbaa !25
  call void @llvm.lifetime.start.p0(i64 8, ptr %12) #6
  store i64 0, ptr %12, align 8, !tbaa !3
  call void @llvm.lifetime.start.p0(i64 8, ptr %13) #6
  store i64 0, ptr %13, align 8, !tbaa !3
  call void @llvm.lifetime.start.p0(i64 8, ptr %14) #6
  store i64 0, ptr %14, align 8, !tbaa !3
  call void @llvm.lifetime.start.p0(i64 8, ptr %15) #6
  call void @llvm.lifetime.start.p0(i64 8, ptr %16) #6
  call void @llvm.lifetime.start.p0(i64 8, ptr %17) #6
  store ptr null, ptr %17, align 8, !tbaa !19
  call void @llvm.lifetime.start.p0(i64 8, ptr %18) #6
  %20 = load ptr, ptr %7, align 8, !tbaa !7
  %21 = getelementptr inbounds nuw %struct.quic_sstream_st, ptr %20, i32 0, i32 1
  %22 = call ptr @ossl_list_uint_set_head(ptr noundef %21)
  store ptr %22, ptr %18, align 8, !tbaa !27
  %23 = load ptr, ptr %11, align 8, !tbaa !25
  %24 = load i64, ptr %23, align 8, !tbaa !3
  %25 = icmp ult i64 %24, 2
  br i1 %25, label %26, label %27

26:                                               ; preds = %5
  store i32 0, ptr %6, align 4
  store i32 1, ptr %19, align 4
  br label %185

27:                                               ; preds = %5
  store i64 0, ptr %15, align 8, !tbaa !3
  br label %28

28:                                               ; preds = %40, %27
  %29 = load i64, ptr %15, align 8, !tbaa !3
  %30 = load i64, ptr %8, align 8, !tbaa !3
  %31 = icmp ult i64 %29, %30
  br i1 %31, label %32, label %35

32:                                               ; preds = %28
  %33 = load ptr, ptr %18, align 8, !tbaa !27
  %34 = icmp ne ptr %33, null
  br label %35

35:                                               ; preds = %32, %28
  %36 = phi i1 [ false, %28 ], [ %34, %32 ]
  br i1 %36, label %37, label %43

37:                                               ; preds = %35
  %38 = load ptr, ptr %18, align 8, !tbaa !27
  %39 = call ptr @ossl_list_uint_set_next(ptr noundef %38)
  store ptr %39, ptr %18, align 8, !tbaa !27
  br label %40

40:                                               ; preds = %37
  %41 = load i64, ptr %15, align 8, !tbaa !3
  %42 = add i64 %41, 1
  store i64 %42, ptr %15, align 8, !tbaa !3
  br label %28, !llvm.loop !29

43:                                               ; preds = %35
  %44 = load ptr, ptr %18, align 8, !tbaa !27
  %45 = icmp eq ptr %44, null
  br i1 %45, label %46, label %82

46:                                               ; preds = %43
  %47 = load i64, ptr %15, align 8, !tbaa !3
  %48 = load i64, ptr %8, align 8, !tbaa !3
  %49 = icmp ult i64 %47, %48
  br i1 %49, label %50, label %51

50:                                               ; preds = %46
  store i32 0, ptr %6, align 4
  store i32 1, ptr %19, align 4
  br label %185

51:                                               ; preds = %46
  %52 = load ptr, ptr %7, align 8, !tbaa !7
  %53 = getelementptr inbounds nuw %struct.quic_sstream_st, ptr %52, i32 0, i32 3
  %54 = load i8, ptr %53, align 8
  %55 = and i8 %54, 1
  %56 = zext i8 %55 to i32
  %57 = icmp ne i32 %56, 0
  br i1 %57, label %58, label %66

58:                                               ; preds = %51
  %59 = load ptr, ptr %7, align 8, !tbaa !7
  %60 = getelementptr inbounds nuw %struct.quic_sstream_st, ptr %59, i32 0, i32 3
  %61 = load i8, ptr %60, align 8
  %62 = lshr i8 %61, 1
  %63 = and i8 %62, 1
  %64 = zext i8 %63 to i32
  %65 = icmp ne i32 %64, 0
  br i1 %65, label %66, label %67

66:                                               ; preds = %58, %51
  store i32 0, ptr %6, align 4
  store i32 1, ptr %19, align 4
  br label %185

67:                                               ; preds = %58
  %68 = load ptr, ptr %7, align 8, !tbaa !7
  %69 = getelementptr inbounds nuw %struct.quic_sstream_st, ptr %68, i32 0, i32 0
  %70 = getelementptr inbounds nuw %struct.ring_buf, ptr %69, i32 0, i32 2
  %71 = load i64, ptr %70, align 8, !tbaa !31
  %72 = load ptr, ptr %9, align 8, !tbaa !21
  %73 = getelementptr inbounds nuw %struct.ossl_quic_frame_stream_st, ptr %72, i32 0, i32 1
  store i64 %71, ptr %73, align 8, !tbaa !34
  %74 = load ptr, ptr %9, align 8, !tbaa !21
  %75 = getelementptr inbounds nuw %struct.ossl_quic_frame_stream_st, ptr %74, i32 0, i32 2
  store i64 0, ptr %75, align 8, !tbaa !36
  %76 = load ptr, ptr %9, align 8, !tbaa !21
  %77 = getelementptr inbounds nuw %struct.ossl_quic_frame_stream_st, ptr %76, i32 0, i32 4
  %78 = load i8, ptr %77, align 8
  %79 = and i8 %78, -3
  %80 = or i8 %79, 2
  store i8 %80, ptr %77, align 8
  %81 = load ptr, ptr %11, align 8, !tbaa !25
  store i64 0, ptr %81, align 8, !tbaa !3
  store i32 1, ptr %6, align 4
  store i32 1, ptr %19, align 4
  br label %185

82:                                               ; preds = %43
  %83 = load ptr, ptr %18, align 8, !tbaa !27
  %84 = getelementptr inbounds nuw %struct.uint_set_item_st, ptr %83, i32 0, i32 1
  %85 = getelementptr inbounds nuw %struct.uint_range_st, ptr %84, i32 0, i32 1
  %86 = load i64, ptr %85, align 8, !tbaa !37
  %87 = load ptr, ptr %18, align 8, !tbaa !27
  %88 = getelementptr inbounds nuw %struct.uint_set_item_st, ptr %87, i32 0, i32 1
  %89 = getelementptr inbounds nuw %struct.uint_range_st, ptr %88, i32 0, i32 0
  %90 = load i64, ptr %89, align 8, !tbaa !41
  %91 = sub i64 %86, %90
  %92 = add i64 %91, 1
  store i64 %92, ptr %16, align 8, !tbaa !3
  store i64 0, ptr %15, align 8, !tbaa !3
  br label %93

93:                                               ; preds = %140, %82
  %94 = load i64, ptr %14, align 8, !tbaa !3
  %95 = load i64, ptr %16, align 8, !tbaa !3
  %96 = icmp uge i64 %94, %95
  br i1 %96, label %97, label %98

97:                                               ; preds = %93
  br label %143

98:                                               ; preds = %93
  %99 = load ptr, ptr %7, align 8, !tbaa !7
  %100 = getelementptr inbounds nuw %struct.quic_sstream_st, ptr %99, i32 0, i32 0
  %101 = load ptr, ptr %18, align 8, !tbaa !27
  %102 = getelementptr inbounds nuw %struct.uint_set_item_st, ptr %101, i32 0, i32 1
  %103 = getelementptr inbounds nuw %struct.uint_range_st, ptr %102, i32 0, i32 0
  %104 = load i64, ptr %103, align 8, !tbaa !41
  %105 = load i64, ptr %14, align 8, !tbaa !3
  %106 = add i64 %104, %105
  %107 = call i32 @ring_buf_get_buf_at(ptr noundef %100, i64 noundef %106, ptr noundef %17, ptr noundef %13)
  %108 = icmp ne i32 %107, 0
  br i1 %108, label %110, label %109

109:                                              ; preds = %98
  store i32 0, ptr %6, align 4
  store i32 1, ptr %19, align 4
  br label %185

110:                                              ; preds = %98
  %111 = load i64, ptr %13, align 8, !tbaa !3
  %112 = icmp eq i64 %111, 0
  br i1 %112, label %113, label %114

113:                                              ; preds = %110
  br label %143

114:                                              ; preds = %110
  %115 = load i64, ptr %14, align 8, !tbaa !3
  %116 = load i64, ptr %13, align 8, !tbaa !3
  %117 = add i64 %115, %116
  %118 = load i64, ptr %16, align 8, !tbaa !3
  %119 = icmp ugt i64 %117, %118
  br i1 %119, label %120, label %124

120:                                              ; preds = %114
  %121 = load i64, ptr %16, align 8, !tbaa !3
  %122 = load i64, ptr %14, align 8, !tbaa !3
  %123 = sub i64 %121, %122
  store i64 %123, ptr %13, align 8, !tbaa !3
  br label %124

124:                                              ; preds = %120, %114
  %125 = load ptr, ptr %17, align 8, !tbaa !19
  %126 = load ptr, ptr %10, align 8, !tbaa !23
  %127 = load i64, ptr %12, align 8, !tbaa !3
  %128 = getelementptr inbounds nuw %struct.ossl_qtx_iovec_st, ptr %126, i64 %127
  %129 = getelementptr inbounds nuw %struct.ossl_qtx_iovec_st, ptr %128, i32 0, i32 0
  store ptr %125, ptr %129, align 8, !tbaa !42
  %130 = load i64, ptr %13, align 8, !tbaa !3
  %131 = load ptr, ptr %10, align 8, !tbaa !23
  %132 = load i64, ptr %12, align 8, !tbaa !3
  %133 = getelementptr inbounds nuw %struct.ossl_qtx_iovec_st, ptr %131, i64 %132
  %134 = getelementptr inbounds nuw %struct.ossl_qtx_iovec_st, ptr %133, i32 0, i32 1
  store i64 %130, ptr %134, align 8, !tbaa !44
  %135 = load i64, ptr %13, align 8, !tbaa !3
  %136 = load i64, ptr %14, align 8, !tbaa !3
  %137 = add i64 %136, %135
  store i64 %137, ptr %14, align 8, !tbaa !3
  %138 = load i64, ptr %12, align 8, !tbaa !3
  %139 = add i64 %138, 1
  store i64 %139, ptr %12, align 8, !tbaa !3
  br label %140

140:                                              ; preds = %124
  %141 = load i64, ptr %15, align 8, !tbaa !3
  %142 = add i64 %141, 1
  store i64 %142, ptr %15, align 8, !tbaa !3
  br label %93

143:                                              ; preds = %113, %97
  %144 = load ptr, ptr %18, align 8, !tbaa !27
  %145 = getelementptr inbounds nuw %struct.uint_set_item_st, ptr %144, i32 0, i32 1
  %146 = getelementptr inbounds nuw %struct.uint_range_st, ptr %145, i32 0, i32 0
  %147 = load i64, ptr %146, align 8, !tbaa !41
  %148 = load ptr, ptr %9, align 8, !tbaa !21
  %149 = getelementptr inbounds nuw %struct.ossl_quic_frame_stream_st, ptr %148, i32 0, i32 1
  store i64 %147, ptr %149, align 8, !tbaa !34
  %150 = load i64, ptr %14, align 8, !tbaa !3
  %151 = load ptr, ptr %9, align 8, !tbaa !21
  %152 = getelementptr inbounds nuw %struct.ossl_quic_frame_stream_st, ptr %151, i32 0, i32 2
  store i64 %150, ptr %152, align 8, !tbaa !36
  %153 = load ptr, ptr %7, align 8, !tbaa !7
  %154 = getelementptr inbounds nuw %struct.quic_sstream_st, ptr %153, i32 0, i32 3
  %155 = load i8, ptr %154, align 8
  %156 = and i8 %155, 1
  %157 = zext i8 %156 to i32
  %158 = icmp ne i32 %157, 0
  br i1 %158, label %159, label %172

159:                                              ; preds = %143
  %160 = load ptr, ptr %9, align 8, !tbaa !21
  %161 = getelementptr inbounds nuw %struct.ossl_quic_frame_stream_st, ptr %160, i32 0, i32 1
  %162 = load i64, ptr %161, align 8, !tbaa !34
  %163 = load ptr, ptr %9, align 8, !tbaa !21
  %164 = getelementptr inbounds nuw %struct.ossl_quic_frame_stream_st, ptr %163, i32 0, i32 2
  %165 = load i64, ptr %164, align 8, !tbaa !36
  %166 = add i64 %162, %165
  %167 = load ptr, ptr %7, align 8, !tbaa !7
  %168 = getelementptr inbounds nuw %struct.quic_sstream_st, ptr %167, i32 0, i32 0
  %169 = getelementptr inbounds nuw %struct.ring_buf, ptr %168, i32 0, i32 2
  %170 = load i64, ptr %169, align 8, !tbaa !31
  %171 = icmp eq i64 %166, %170
  br label %172

172:                                              ; preds = %159, %143
  %173 = phi i1 [ false, %143 ], [ %171, %159 ]
  %174 = zext i1 %173 to i32
  %175 = load ptr, ptr %9, align 8, !tbaa !21
  %176 = getelementptr inbounds nuw %struct.ossl_quic_frame_stream_st, ptr %175, i32 0, i32 4
  %177 = trunc i32 %174 to i8
  %178 = load i8, ptr %176, align 8
  %179 = and i8 %177, 1
  %180 = shl i8 %179, 1
  %181 = and i8 %178, -3
  %182 = or i8 %181, %180
  store i8 %182, ptr %176, align 8
  %183 = load i64, ptr %12, align 8, !tbaa !3
  %184 = load ptr, ptr %11, align 8, !tbaa !25
  store i64 %183, ptr %184, align 8, !tbaa !3
  store i32 1, ptr %6, align 4
  store i32 1, ptr %19, align 4
  br label %185

185:                                              ; preds = %172, %109, %67, %66, %50, %26
  call void @llvm.lifetime.end.p0(i64 8, ptr %18) #6
  call void @llvm.lifetime.end.p0(i64 8, ptr %17) #6
  call void @llvm.lifetime.end.p0(i64 8, ptr %16) #6
  call void @llvm.lifetime.end.p0(i64 8, ptr %15) #6
  call void @llvm.lifetime.end.p0(i64 8, ptr %14) #6
  call void @llvm.lifetime.end.p0(i64 8, ptr %13) #6
  call void @llvm.lifetime.end.p0(i64 8, ptr %12) #6
  %186 = load i32, ptr %6, align 4
  ret i32 %186
}