; Function Attrs: nofree norecurse nosync nounwind memory(read, argmem: readwrite, inaccessiblemem: none) uwtable
define range(i32 0, 2) i32 @ossl_quic_sstream_get_stream_frame(ptr noundef readonly captures(none) %0, i64 noundef %1, ptr noundef captures(none) %2, ptr noundef writeonly captures(none) %3, ptr noundef captures(none) %4) local_unnamed_addr #4 {
  %6 = load i64, ptr %4, align 8, !tbaa !12
  %7 = icmp ult i64 %6, 2
  br i1 %7, label %ring_buf_get_buf_at.exit.thread, label %.preheader.preheader

.preheader.preheader:                             ; preds = %5
  %8 = getelementptr inbounds nuw i8, ptr %0, i64 32
  br label %.preheader

.preheader:                                       ; preds = %.preheader.preheader, %.preheader
  %.047 = phi i64 [ %12, %.preheader ], [ 0, %.preheader.preheader ]
  %.0.in = phi ptr [ %.0, %.preheader ], [ %8, %.preheader.preheader ]
  %.0 = load ptr, ptr %.0.in, align 8, !tbaa !13
  %9 = icmp ult i64 %.047, %1
  %10 = icmp ne ptr %.0, null
  %11 = select i1 %9, i1 %10, i1 false
  %12 = add nuw i64 %.047, 1
  br i1 %11, label %.preheader, label %13, !llvm.loop !15

13:                                               ; preds = %.preheader
  %14 = icmp eq ptr %.0, null
  br i1 %14, label %15, label %28

15:                                               ; preds = %13
  br i1 %9, label %ring_buf_get_buf_at.exit.thread, label %16

16:                                               ; preds = %15
  %17 = getelementptr inbounds nuw i8, ptr %0, i64 80
  %18 = load i8, ptr %17, align 8
  %19 = and i8 %18, 3
  %or.cond = icmp eq i8 %19, 1
  br i1 %or.cond, label %20, label %ring_buf_get_buf_at.exit.thread

20:                                               ; preds = %16
  %21 = getelementptr inbounds nuw i8, ptr %0, i64 16
  %22 = load i64, ptr %21, align 8, !tbaa !17
  %23 = getelementptr inbounds nuw i8, ptr %2, i64 8
  store i64 %22, ptr %23, align 8, !tbaa !21
  %24 = getelementptr inbounds nuw i8, ptr %2, i64 16
  store i64 0, ptr %24, align 8, !tbaa !24
  %25 = getelementptr inbounds nuw i8, ptr %2, i64 32
  %26 = load i8, ptr %25, align 8
  %27 = or i8 %26, 2
  store i8 %27, ptr %25, align 8
  br label %ring_buf_get_buf_at.exit.thread.sink.split

28:                                               ; preds = %13
  %29 = getelementptr inbounds nuw i8, ptr %.0, i64 16
  %30 = getelementptr inbounds nuw i8, ptr %.0, i64 24
  %31 = load i64, ptr %30, align 8, !tbaa !25
  %32 = load i64, ptr %29, align 8, !tbaa !29
  %33 = sub i64 %31, %32
  %34 = add i64 %33, 1
  %.not70.not = icmp eq i64 %34, 0
  br i1 %.not70.not, label %ring_buf_get_buf_at.exit.thread64, label %.lr.ph

.lr.ph:                                           ; preds = %28
  %35 = load ptr, ptr %0, align 8, !tbaa !3
  %36 = getelementptr inbounds nuw i8, ptr %0, i64 16
  %37 = load i64, ptr %36, align 8, !tbaa !10
  %38 = getelementptr inbounds nuw i8, ptr %0, i64 24
  %39 = getelementptr inbounds nuw i8, ptr %0, i64 8
  br label %40

40:                                               ; preds = %.lr.ph, %53
  %.04872 = phi i64 [ 0, %.lr.ph ], [ %60, %53 ]
  %.04971 = phi i64 [ 0, %.lr.ph ], [ %61, %53 ]
  %41 = add i64 %.04872, %32
  %42 = icmp ugt i64 %41, %37
  br i1 %42, label %ring_buf_get_buf_at.exit.thread, label %43

43:                                               ; preds = %40
  %44 = load i64, ptr %38, align 8, !tbaa !11
  %45 = icmp ult i64 %41, %44
  br i1 %45, label %ring_buf_get_buf_at.exit.thread, label %46

46:                                               ; preds = %43
  %47 = load i64, ptr %39, align 8, !tbaa !9
  %48 = icmp eq i64 %47, 0
  br i1 %48, label %ring_buf_get_buf_at.exit.thread64, label %ring_buf_get_buf_at.exit

ring_buf_get_buf_at.exit:                         ; preds = %46
  %49 = urem i64 %41, %47
  %50 = sub i64 %37, %41
  %51 = sub i64 %47, %49
  %spec.select.i = tail call i64 @llvm.umin.i64(i64 %50, i64 %51)
  %52 = icmp eq i64 %spec.select.i, 0
  br i1 %52, label %ring_buf_get_buf_at.exit.thread64, label %53

53:                                               ; preds = %ring_buf_get_buf_at.exit
  %54 = getelementptr inbounds nuw i8, ptr %35, i64 %49
  %55 = add i64 %spec.select.i, %.04872
  %56 = icmp ugt i64 %55, %34
  %57 = sub i64 %34, %.04872
  %spec.select = select i1 %56, i64 %57, i64 %spec.select.i
  %58 = getelementptr inbounds nuw %struct.ossl_qtx_iovec_st, ptr %3, i64 %.04971
  store ptr %54, ptr %58, align 8, !tbaa !30
  %59 = getelementptr inbounds nuw i8, ptr %58, i64 8
  store i64 %spec.select, ptr %59, align 8, !tbaa !32
  %60 = add i64 %spec.select, %.04872
  %61 = add i64 %.04971, 1
  %.not = icmp ult i64 %60, %34
  br i1 %.not, label %40, label %ring_buf_get_buf_at.exit.thread64

ring_buf_get_buf_at.exit.thread64:                ; preds = %53, %ring_buf_get_buf_at.exit, %46, %28
  %.049.lcssa = phi i64 [ 0, %28 ], [ %.04971, %46 ], [ %.04971, %ring_buf_get_buf_at.exit ], [ %61, %53 ]
  %.048.lcssa = phi i64 [ 0, %28 ], [ %.04872, %46 ], [ %.04872, %ring_buf_get_buf_at.exit ], [ %60, %53 ]
  %62 = getelementptr inbounds nuw i8, ptr %2, i64 8
  store i64 %32, ptr %62, align 8, !tbaa !21
  %63 = getelementptr inbounds nuw i8, ptr %2, i64 16
  store i64 %.048.lcssa, ptr %63, align 8, !tbaa !24
  %64 = getelementptr inbounds nuw i8, ptr %0, i64 80
  %65 = load i8, ptr %64, align 8
  %66 = and i8 %65, 1
  %.not53 = icmp eq i8 %66, 0
  br i1 %.not53, label %73, label %67

67:                                               ; preds = %ring_buf_get_buf_at.exit.thread64
  %68 = add i64 %.048.lcssa, %32
  %69 = getelementptr inbounds nuw i8, ptr %0, i64 16
  %70 = load i64, ptr %69, align 8, !tbaa !17
  %71 = icmp eq i64 %68, %70
  %72 = select i1 %71, i8 2, i8 0
  br label %73

73:                                               ; preds = %67, %ring_buf_get_buf_at.exit.thread64
  %74 = phi i8 [ 0, %ring_buf_get_buf_at.exit.thread64 ], [ %72, %67 ]
  %75 = getelementptr inbounds nuw i8, ptr %2, i64 32
  %76 = load i8, ptr %75, align 8
  %77 = and i8 %76, -3
  %78 = or disjoint i8 %77, %74
  store i8 %78, ptr %75, align 8
  br label %ring_buf_get_buf_at.exit.thread.sink.split

ring_buf_get_buf_at.exit.thread.sink.split:       ; preds = %20, %73
  %.049.lcssa.sink = phi i64 [ %.049.lcssa, %73 ], [ 0, %20 ]
  store i64 %.049.lcssa.sink, ptr %4, align 8, !tbaa !12
  br label %ring_buf_get_buf_at.exit.thread

ring_buf_get_buf_at.exit.thread:                  ; preds = %40, %43, %ring_buf_get_buf_at.exit.thread.sink.split, %16, %15, %5
  %.046 = phi i32 [ 0, %5 ], [ 0, %15 ], [ 0, %16 ], [ 1, %ring_buf_get_buf_at.exit.thread.sink.split ], [ 0, %43 ], [ 0, %40 ]
  ret i32 %.046
}